target datalayout = "e-m:e-p270:32:32-p271:32:32-p272:64:64-i64:64-i128:128-f80:128-n8:16:32:64-S128"
target triple = "x86_64-pc-linux-gnu"

; Function Attrs: nounwind sspstrong uwtable
define dso_local void @tcg_gen_vec_neg32_i64(ptr noundef %0, ptr noundef %1) #0 {
  %3 = alloca ptr, align 8
  %4 = alloca ptr, align 8
  %5 = alloca ptr, align 8
  %6 = alloca ptr, align 8
  store ptr %0, ptr %3, align 8
  store ptr %1, ptr %4, align 8
  call void @llvm.lifetime.start.p0(i64 8, ptr %5) #10
  %7 = call ptr @tcg_temp_ebb_new_i64()
  store ptr %7, ptr %5, align 8
  call void @llvm.lifetime.start.p0(i64 8, ptr %6) #10
  %8 = call ptr @tcg_temp_ebb_new_i64()
  store ptr %8, ptr %6, align 8
  %9 = load ptr, ptr %5, align 8
  %10 = load ptr, ptr %4, align 8
  call void @tcg_gen_andi_i64(ptr noundef %9, ptr noundef %10, i64 noundef -4294967296)
  %11 = load ptr, ptr %6, align 8
  %12 = load ptr, ptr %4, align 8
  call void @tcg_gen_neg_i64(ptr noundef %11, ptr noundef %12)
  %13 = load ptr, ptr %5, align 8
  %14 = load ptr, ptr %5, align 8
  call void @tcg_gen_neg_i64(ptr noundef %13, ptr noundef %14)
  %15 = load ptr, ptr %3, align 8
  %16 = load ptr, ptr %5, align 8
  %17 = load ptr, ptr %6, align 8
  call void @tcg_gen_deposit_i64(ptr noundef %15, ptr noundef %16, ptr noundef %17, i32 noundef 0, i32 noundef 32)
  %18 = load ptr, ptr %5, align 8
  call void @tcg_temp_free_i64(ptr noundef %18)
  %19 = load ptr, ptr %6, align 8
  call void @tcg_temp_free_i64(ptr noundef %19)
  call void @llvm.lifetime.end.p0(i64 8, ptr %6) #10
  call void @llvm.lifetime.end.p0(i64 8, ptr %5) #10
  ret void
}