; Function Attrs: nounwind sspstrong uwtable
define dso_local void @tcg_gen_vec_neg32_i64(ptr noundef %0, ptr noundef %1) local_unnamed_addr #2 {
  %3 = tail call ptr @tcg_temp_ebb_new_i64() #10
  %4 = tail call ptr @tcg_temp_ebb_new_i64() #10
  tail call void @tcg_gen_andi_i64(ptr noundef %3, ptr noundef %1, i64 noundef -4294967296) #10
  tail call void @tcg_gen_neg_i64(ptr noundef %4, ptr noundef %1) #10
  tail call void @tcg_gen_neg_i64(ptr noundef %3, ptr noundef %3) #10
  tail call void @tcg_gen_deposit_i64(ptr noundef %0, ptr noundef %3, ptr noundef %4, i32 noundef 0, i32 noundef 32) #10
  tail call void @tcg_temp_free_i64(ptr noundef %3) #10
  tail call void @tcg_temp_free_i64(ptr noundef %4) #10
  ret void
}